target datalayout = "e-m:e-p270:32:32-p271:32:32-p272:64:64-i64:64-i128:128-f80:128-n8:16:32:64-S128"
target triple = "x86_64-pc-linux-gnu"

@proto_register_giop_gias.ett = internal global [5 x ptr] [ptr @ett_gias, ptr @ett_giop_struct, ptr @ett_giop_sequence, ptr @ett_giop_array, ptr @ett_giop_union], align 16
@.str.574 = private unnamed_addr constant [30 x i8] c"Gias Dissector Using GIOP API\00", align 1
@.str.575 = private unnamed_addr constant [10 x i8] c"GIOP/GIAS\00", align 1
@.str.576 = private unnamed_addr constant [10 x i8] c"giop-gias\00", align 1
@proto_gias = internal global i32 0, align 4

; Function Attrs: null_pointer_is_valid sspstrong uwtable
define hidden void @proto_register_giop_gias() #0 {
  %1 = alloca ptr, align 8
  call void @llvm.lifetime.start.p0(i64 8, ptr %1) #6
  %2 = call i32 @proto_register_protocol(ptr noundef @.str.574, ptr noundef @.str.575, ptr noundef @.str.576)
  store i32 %2, ptr @proto_gias, align 4
  %3 = load i32, ptr @proto_gias, align 4
  call void @proto_register_field_array(i32 noundef %3, ptr noundef @proto_register_giop_gias.hf, i32 noundef 322)
  call void @proto_register_subtree_array(ptr noundef @proto_register_giop_gias.ett, i32 noundef 5)
  %4 = load i32, ptr @proto_gias, align 4
  %5 = call ptr @expert_register_protocol(i32 noundef %4)
  store ptr %5, ptr %1, align 8
  %6 = load ptr, ptr %1, align 8
  call void @expert_register_field_array(ptr noundef %6, ptr noundef @proto_register_giop_gias.ei, i32 noundef 3)
  call void @llvm.lifetime.end.p0(i64 8, ptr %1) #6
  ret void
}