; Function Attrs: null_pointer_is_valid sspstrong uwtable
define hidden void @proto_register_giop_gias() local_unnamed_addr #0 {
  %1 = tail call i32 @proto_register_protocol(ptr noundef nonnull @.str.574, ptr noundef nonnull @.str.575, ptr noundef nonnull @.str.576)
  store i32 %1, ptr @proto_gias, align 4
  tail call void @proto_register_field_array(i32 noundef %1, ptr noundef nonnull @proto_register_giop_gias.hf, i32 noundef 322)
  tail call void @proto_register_subtree_array(ptr noundef nonnull @proto_register_giop_gias.ett, i32 noundef 5)
  %2 = load i32, ptr @proto_gias, align 4
  %3 = tail call ptr @expert_register_protocol(i32 noundef %2)
  tail call void @expert_register_field_array(ptr noundef %3, ptr noundef nonnull @proto_register_giop_gias.ei, i32 noundef 3)
  ret void
}